target datalayout = "e-m:e-p270:32:32-p271:32:32-p272:64:64-i64:64-i128:128-f80:128-n8:16:32:64-S128"
target triple = "x86_64-pc-linux-gnu"

; Function Attrs: nounwind uwtable
define i32 @Aig_TsiStateHash(ptr noundef %0, i32 noundef %1, i32 noundef %2) #0 {
  %4 = alloca ptr, align 8
  %5 = alloca i32, align 4
  %6 = alloca i32, align 4
  %7 = alloca i32, align 4
  %8 = alloca i32, align 4
  store ptr %0, ptr %4, align 8, !tbaa !41
  store i32 %1, ptr %5, align 4, !tbaa !21
  store i32 %2, ptr %6, align 4, !tbaa !21
  call void @llvm.lifetime.start.p0(i64 4, ptr %7) #9
  call void @llvm.lifetime.start.p0(i64 4, ptr %8) #9
  store i32 0, ptr %7, align 4, !tbaa !21
  store i32 0, ptr %8, align 4, !tbaa !21
  br label %9

9:                                                ; preds = %27, %3
  %10 = load i32, ptr %8, align 4, !tbaa !21
  %11 = load i32, ptr %5, align 4, !tbaa !21
  %12 = icmp slt i32 %10, %11
  br i1 %12, label %13, label %30

13:                                               ; preds = %9
  %14 = load ptr, ptr %4, align 8, !tbaa !41
  %15 = load i32, ptr %8, align 4, !tbaa !21
  %16 = sext i32 %15 to i64
  %17 = getelementptr inbounds i32, ptr %14, i64 %16
  %18 = load i32, ptr %17, align 4, !tbaa !21
  %19 = load i32, ptr %8, align 4, !tbaa !21
  %20 = and i32 %19, 127
  %21 = sext i32 %20 to i64
  %22 = getelementptr inbounds [128 x i32], ptr @Aig_TsiStateHash.s_FPrimes, i64 0, i64 %21
  %23 = load i32, ptr %22, align 4, !tbaa !21
  %24 = mul i32 %18, %23
  %25 = load i32, ptr %7, align 4, !tbaa !21
  %26 = xor i32 %25, %24
  store i32 %26, ptr %7, align 4, !tbaa !21
  br label %27

27:                                               ; preds = %13
  %28 = load i32, ptr %8, align 4, !tbaa !21
  %29 = add nsw i32 %28, 1
  store i32 %29, ptr %8, align 4, !tbaa !21
  br label %9, !llvm.loop !42

30:                                               ; preds = %9
  %31 = load i32, ptr %7, align 4, !tbaa !21
  %32 = load i32, ptr %6, align 4, !tbaa !21
  %33 = urem i32 %31, %32
  call void @llvm.lifetime.end.p0(i64 4, ptr %8) #9
  call void @llvm.lifetime.end.p0(i64 4, ptr %7) #9
  ret i32 %33
}